ccollections
defaultdict
p0
(tRp1
S'AdamAdamantLives'
p2
(lp3
VAdventure
p4
aVSci-Fi
p5
asS'Smallville'
p6
(lp7
VAdventure
p8
aVDrama
p9
aVRomance
p10
aVSci-Fi
p11
asS'TooCloseForComfort'
p12
(lp13
VComedy
p14
asS'JonathanCreek'
p15
(lp16
VCrime
p17
aVDrama
p18
aVMystery
p19
asS'Noob'
p20
(lp21
VComedy
p22
asS'WelcomeBackKotter'
p23
(lp24
VDocumentary
p25
aVBiography
p26
aVCrime
p27
aVHistory
p28
asS'Brimstone'
p29
(lp30
VMystery
p31
aVThriller
p32
aVWestern
p33
asS'TheNakedTruth'
p34
(lp35
VComedy
p36
asS'TheSentinel'
p37
(lp38
VAction
p39
aVCrime
p40
aVThriller
p41
asS'PhoneShop'
p42
(lp43
VReality-TV
p44
asS'LosUnicos'
p45
(lp46
VAction
p47
aVComedy
p48
aVRomance
p49
asS'NinjaTurtlesTheNextMutation'
p50
(lp51
VAction
p52
aVAdventure
p53
aVComedy
p54
aVFamily
p55
aVSci-Fi
p56
asS'Porridge'
p57
(lp58
VComedy
p59
aVCrime
p60
asS'AlfredHitchcockPresents'
p61
(lp62
VCrime
p63
aVDrama
p64
aVMystery
p65
aVThriller
p66
asS'Combat'
p67
(lp68
sS'HarryHillsTVBurp'
p69
(lp70
VComedy
p71
asS'TheDresdenFiles'
p72
(lp73
VAction
p74
aVCrime
p75
aVDrama
p76
aVFantasy
p77
aVMystery
p78
asS'MasterChef'
p79
(lp80
VReality-TV
p81
asS'Parenthood'
p82
(lp83
VComedy
p84
aVDrama
p85
asS'ImACelebrityGetMeOutOfHere'
p86
(lp87
VAdventure
p88
aVComedy
p89
aVReality-TV
p90
asS'ScarecrowAndMrsKing'
p91
(lp92
VAdventure
p93
asS'PitBoss'
p94
(lp95
VReality-TV
p96
asS'BattlestarGalacticaReimagined'
p97
(lp98
sS'AroundTheHorn'
p99
(lp100
VSport
p101
aVTalk-Show
p102
asS'JohnAdams'
p103
(lp104
VBiography
p105
aVDrama
p106
aVHistory
p107
asS'HeartsAfire'
p108
(lp109
VComedy
p110
aVRomance
p111
asS'Room101'
p112
(lp113
VComedy
p114
aVTalk-Show
p115
asS'TwentyFour'
p116
(lp117
VAction
p118
aVCrime
p119
aVDrama
p120
aVThriller
p121
asS'BronBroen'
p122
(lp123
VDocumentary
p124
asS'TheCrossWits'
p125
(lp126
VGame-Show
p127
asS'ArthurOfTheBritons'
p128
(lp129
VAdventure
p130
asS'Titus'
p131
(lp132
VDrama
p133
aVHistory
p134
aVThriller
p135
asS'Blade'
p136
(lp137
VAction
p138
aVHorror
p139
asS'TheAdventuresOfSuperboy'
p140
(lp141
VAdventure
p142
aVFantasy
p143
aVSci-Fi
p144
asS'NightVisions'
p145
(lp146
VFantasy
p147
aVHorror
p148
aVMystery
p149
aVSci-Fi
p150
aVThriller
p151
asS'Scrubs'
p152
(lp153
VComedy
p154
aVDrama
p155
asS'HiDeHi'
p156
(lp157
VComedy
p158
asS'SweetGenius'
p159
(lp160
VReality-TV
p161
asS'OpenAllHours'
p162
(lp163
VComedy
p164
asS'DontTrustTheBInApartment23'
p165
(lp166
VComedy
p167
asS'TheComicStripPresents'
p168
(lp169
VComedy
p170
asS'FlashGordon'
p171
(lp172
VAction
p173
aVAdventure
p174
aVSci-Fi
p175
asS'Trollied'
p176
(lp177
VComedy
p178
asS'BestLove'
p179
(lp180
VComedy
p181
aVDrama
p182
aVRomance
p183
asS'NewsRadio'
p184
(lp185
VComedy
p186
aVRomance
p187
asS'VidasRobadas'
p188
(lp189
VCrime
p190
aVDrama
p191
aVMystery
p192
aVThriller
p193
asS'LessThanPerfect'
p194
(lp195
VComedy
p196
asS'ModernFamily'
p197
(lp198
VComedy
p199
aVRomance
p200
asS'SamanthaWho'
p201
(lp202
VTalk-Show
p203
asS'WhatWouldYouDoNickelodeon'
p204
(lp205
sS'TodaysSpecial'
p206
(lp207
VComedy
p208
asS'FindersKeepers'
p209
(lp210
VHorror
p211
aVMystery
p212
aVThriller
p213
asS'WKRPInCincinnati'
p214
(lp215
VComedy
p216
asS'Merlin'
p217
(lp218
VAdventure
p219
aVDrama
p220
aVFantasy
p221
asS'Rev'
p222
(lp223
VShort
p224
aVDrama
p225
aVMystery
p226
asS'TheFreshPrinceOfBelAir'
p227
(lp228
VComedy
p229
asS'AntiquesRoadShow'
p230
(lp231
sS'AnimalPlanetHeroes'
p232
(lp233
VDocumentary
p234
asS'ItsMeOrTheDog'
p235
(lp236
VReality-TV
p237
asS'GoodnightSweetheart'
p238
(lp239
VComedy
p240
aVDrama
p241
aVFantasy
p242
aVHistory
p243
aVRomance
p244
aVSci-Fi
p245
asS'Reno911'
p246
(lp247
VComedy
p248
aVCrime
p249
asS'Witchblade'
p250
(lp251
VFantasy
p252
aVAction
p253
asS'HimAndHer'
p254
(lp255
VShort
p256
aVDrama
p257
asS'FridayNightDinner'
p258
(lp259
VComedy
p260
asS'LifeWithDerek'
p261
(lp262
VComedy
p263
aVDrama
p264
aVFamily
p265
asS'DaddysDaughters'
p266
(lp267
VDrama
p268
asS'NoHeroics'
p269
(lp270
VComedy
p271
asS'TheStoryteller'
p272
(lp273
VAdventure
p274
aVDrama
p275
aVFamily
p276
aVFantasy
p277
aVHorror
p278
asS'BlackAndWhiteTW'
p279
(lp280
VAction
p281
aVMystery
p282
aVThriller
p283
asS'JimRomeIsBurning'
p284
(lp285
VSport
p286
aVTalk-Show
p287
asS'ItTakesAThief'
p288
(lp289
VAdventure
p290
aVCrime
p291
aVDrama
p292
asS'Boomtown'
p293
(lp294
VCrime
p295
aVDrama
p296
aVMystery
p297
aVThriller
p298
asS'Tucker'
p299
(lp300
VBiography
p301
aVDrama
p302
asS'ThatGirl'
p303
(lp304
VComedy
p305
asS'TheThinBlueLine'
p306
(lp307
VDocumentary
p308
aVCrime
p309
aVDrama
p310
aVMystery
p311
asS'Raumpatrouille'
p312
(lp313
VAdventure
p314
aVSci-Fi
p315
asS'LambChopsPlayAlong'
p316
(lp317
VFamily
p318
asS'Rush'
p319
(lp320
VAction
p321
aVBiography
p322
aVDrama
p323
aVSport
p324
asS'RutlandWeekendTelevision'
p325
(lp326
VComedy
p327
aVMusic
p328
asS'Coach'
p329
(lp330
VComedy
p331
aVSport
p332
asS'OnceUponATime'
p333
(lp334
VAdventure
p335
aVFantasy
p336
aVRomance
p337
asS'MostlyHarmless'
p338
(lp339
VTalk-Show
p340
asS'Profiler'
p341
(lp342
VCrime
p343
aVDrama
p344
aVThriller
p345
aVMystery
p346
asS'MadMen'
p347
(lp348
VDrama
p349
asS'Merlin-1998'
p350
(lp351
VAdventure
p352
aVDrama
p353
aVFantasy
p354
aVAction
p355
aVRomance
p356
asS'YouAreBeautiful'
p357
(lp358
VComedy
p359
aVDrama
p360
aVMusic
p361
aVRomance
p362
asS'MyWifeAndKids'
p363
(lp364
VComedy
p365
aVRomance
p366
asS'Koreanosaurus'
p367
(lp368
sS'TokumeiSentaiGoBusters'
p369
(lp370
VAction
p371
aVAdventure
p372
aVDrama
p373
aVSci-Fi
p374
asS'AthenaGoddessOfWar'
p375
(lp376
VAction
p377
aVRomance
p378
aVThriller
p379
asS'TheIncreasinglyPoorDecisionsOfToddMargaret'
p380
(lp381
VComedy
p382
asS'LoveKeepsGoing'
p383
(lp384
VDrama
p385
asS'TheManyLovesOfDobieGillis'
p386
(lp387
VComedy
p388
aVFamily
p389
asS'SirArthurConanDoylesTheLostWorld'
p390
(lp391
VAction
p392
aVSci-Fi
p393
aVAdventure
p394
asS'Downfall'
p395
(lp396
VBiography
p397
aVDrama
p398
aVHistory
p399
aVWar
p400
asS'Absolutely'
p401
(lp402
VComedy
p403
asS'NightCourt'
p404
(lp405
VComedy
p406
asS'TheGames'
p407
(lp408
VDrama
p409
aVSport
p410
asS'FireballXL5'
p411
(lp412
VFamily
p413
aVSci-Fi
p414
asS'ThePrisoner'
p415
(lp416
VCrime
p417
aVDrama
p418
asS'WhatsMyLine'
p419
(lp420
VComedy
p421
aVFamily
p422
aVGame-Show
p423
asS'RippingYarns'
p424
(lp425
VAdventure
p426
aVComedy
p427
asS'CountdownWithKeithOlbermann'
p428
(lp429
VNews
p430
aVTalk-Show
p431
asS'TheMagnificentSeven'
p432
(lp433
VAction
p434
aVAdventure
p435
aVWestern
p436
asS'TheInbetweeners'
p437
(lp438
VComedy
p439
asS'ArrestedDevelopment'
p440
(lp441
VComedy
p442
asS'OneThousandWaysToDie'
p443
(lp444
sS'SabrinaTheTeenageWitch'
p445
(lp446
VComedy
p447
aVFamily
p448
aVFantasy
p449
asS'Blossom'
p450
(lp451
VComedy
p452
aVDrama
p453
asS'TheVoice'
p454
(lp455
VGame-Show
p456
aVMusic
p457
aVReality-TV
p458
asS'PhoenixNights'
p459
(lp460
VComedy
p461
asS'TrueJacksonVP'
p462
(lp463
VComedy
p464
aVDrama
p465
aVFamily
p466
asS'SherlockHolmes'
p467
(lp468
VAction
p469
aVAdventure
p470
aVCrime
p471
aVMystery
p472
aVThriller
p473
asS'TorchwoodChildrenOfEarth'
p474
(lp475
VAction
p476
aVDrama
p477
aVSci-Fi
p478
aVThriller
p479
asS'NYC22'
p480
(lp481
VCrime
p482
aVDrama
p483
asS'LaQueSeAvecina'
p484
(lp485
VComedy
p486
asS'MeerkatManor'
p487
(lp488
VDocumentary
p489
asS'DearJohn'
p490
(lp491
VDrama
p492
aVRomance
p493
aVWar
p494
asS'ChristmasOnVesterbro'
p495
(lp496
VComedy
p497
asS'Neverland'
p498
(lp499
VBiography
p500
aVDrama
p501
aVFamily
p502
asS'ZOOM'
p503
(lp504
VAction
p505
aVAdventure
p506
aVFamily
p507
aVSci-Fi
p508
asS'Whammy'
p509
(lp510
VFamily
p511
aVGame-Show
p512
asS'MyPlace'
p513
(lp514
VDrama
p515
aVFamily
p516
asS'BigTimeRush'
p517
(lp518
VComedy
p519
aVFamily
p520
aVMusical
p521
asS'RussellHowardsGoodNews'
p522
(lp523
VComedy
p524
asS'Awake'
p525
(lp526
VCrime
p527
aVMystery
p528
aVThriller
p529
asS'TheListener'
p530
(lp531
VCrime
p532
aVDrama
p533
aVFantasy
p534
aVSci-Fi
p535
asS'ColgateComedyHour'
p536
(lp537
VComedy
p538
aVRomance
p539
asS'TheHoneymooners'
p540
(lp541
VComedy
p542
aVFamily
p543
asS'Seinfeld'
p544
(lp545
VComedy
p546
asS'MissionImpossible'
p547
(lp548
VAction
p549
aVAdventure
p550
aVThriller
p551
asS'DreamHigh2'
p552
(lp553
VComedy
p554
aVMusic
p555
aVRomance
p556
asS'FifteenLove'
p557
(lp558
VReality-TV
p559
asS'Cybill'
p560
(lp561
VComedy
p562
asS'WhoDoYouThinkYouAre'
p563
(lp564
VAnimation
p565
aVComedy
p566
asS'CatchPhrase'
p567
(lp568
VGame-Show
p569
asS'LeadBalloon'
p570
(lp571
VComedy
p572
asS'LifeSupport'
p573
(lp574
VDrama
p575
asS'TheFirm'
p576
(lp577
VDrama
p578
aVMystery
p579
aVThriller
p580
asS'DeadGorgeous'
p581
(lp582
VComedy
p583
aVDrama
p584
aVFantasy
p585
aVRomance
p586
asS'PrettyLittleLiars'
p587
(lp588
VDrama
p589
aVMystery
p590
aVRomance
p591
aVThriller
p592
asS'PleaseSir'
p593
(lp594
VComedy
p595
aVSci-Fi
p596
asS'ALF'
p597
(lp598
VComedy
p599
aVFamily
p600
aVFantasy
p601
aVRomance
p602
asS'SanfordAndSon'
p603
(lp604
VComedy
p605
asS'SportsNight'
p606
(lp607
VComedy
p608
aVDrama
p609
aVSport
p610
asS'Beetleborgs'
p611
(lp612
VAction
p613
aVAdventure
p614
aVComedy
p615
asS'TheGoodies'
p616
(lp617
VComedy
p618
asS'AllCreaturesGreatAndSmall'
p619
(lp620
VComedy
p621
aVDrama
p622
asS'TheThickOfIt'
p623
(lp624
VComedy
p625
asS'VirtuesOfHarmony'
p626
(lp627
VAnimation
p628
aVCrime
p629
aVDrama
p630
aVThriller
p631
asS'LittleMosqueOnThePrairie'
p632
(lp633
VComedy
p634
asS'Alcatraz'
p635
(lp636
VAction
p637
aVAdventure
p638
aVThriller
p639
asS'TheITCrowd'
p640
(lp641
VComedy
p642
asS'StarTrekTheOriginalSeries'
p643
(lp644
VSci-Fi
p645
asS'TheCosbyShow'
p646
(lp647
VComedy
p648
aVFamily
p649
aVRomance
p650
asS'PetticoatJunction'
p651
(lp652
VComedy
p653
asS'Wheaton'
p654
(lp655
VComedy
p656
aVTalk-Show
p657
asS'TheRedGreenShow'
p658
(lp659
VComedy
p660
asS'DeathValley'
p661
(lp662
VDrama
p663
aVThriller
p664
asS'QueenOfSwords'
p665
(lp666
VAction
p667
aVAdventure
p668
aVWestern
p669
asS'TheDailyShow'
p670
(lp671
VComedy
p672
aVNews
p673
aVTalk-Show
p674
asS'WhatsHappening'
p675
(lp676
VComedy
p677
asS'DoctorWho'
p678
(lp679
VAdventure
p680
aVDrama
p681
aVFamily
p682
aVMystery
p683
aVSci-Fi
p684
asS'GreenAcres'
p685
(lp686
VComedy
p687
aVFamily
p688
asS'FullHouse'
p689
(lp690
VComedy
p691
aVDrama
p692
aVFamily
p693
asS'Lawman'
p694
(lp695
VAction
p696
aVCrime
p697
aVDrama
p698
aVRomance
p699
aVThriller
p700
asS'PersonOfInterest'
p701
(lp702
VAction
p703
aVCrime
p704
aVDrama
p705
aVMystery
p706
aVSci-Fi
p707
aVThriller
p708
asS'JurassicFightClub'
p709
(lp710
VDocumentary
p711
aVHistory
p712
asS'Beastmaster'
p713
(lp714
VAction
p715
aVAdventure
p716
aVFantasy
p717
asS'TheOuterLimits'
p718
(lp719
VDrama
p720
aVFantasy
p721
aVHorror
p722
aVMystery
p723
aVSci-Fi
p724
aVThriller
p725
asS'TheHollowmen'
p726
(lp727
VComedy
p728
aVDrama
p729
asS'TheGoodGuys'
p730
(lp731
VAction
p732
aVComedy
p733
asS'TheBernieMacShow'
p734
(lp735
VComedy
p736
aVDrama
p737
aVFamily
p738
asS'Miranda'
p739
(lp740
VComedy
p741
asS'GoldRush'
p742
(lp743
VReality-TV
p744
asS'PrisonBreak'
p745
(lp746
VAction
p747
aVCrime
p748
aVDrama
p749
aVMystery
p750
aVThriller
p751
asS'Mythbusters'
p752
(lp753
VDocumentary
p754
aVMystery
p755
aVReality-TV
p756
asS'Friends'
p757
(lp758
VComedy
p759
aVRomance
p760
asS'BeautifulPeople'
p761
(lp762
VCrime
p763
aVDrama
p764
aVRomance
p765
asS'MysteriousWays'
p766
(lp767
VDrama
p768
aVFantasy
p769
aVSci-Fi
p770
asS'TheDickVanDykeShow'
p771
(lp772
VComedy
p773
aVFamily
p774
asS'TheJimHensonHour'
p775
(lp776
VComedy
p777
aVFamily
p778
aVFantasy
p779
asS'Wallander'
p780
(lp781
VCrime
p782
aVDrama
p783
aVMystery
p784
aVThriller
p785
asS'WMACMasters'
p786
(lp787
VSport
p788
asS'Oddities'
p789
(lp790
VReality-TV
p791
asS'Alias'
p792
(lp793
VAction
p794
aVDrama
p795
aVMystery
p796
aVSci-Fi
p797
aVThriller
p798
asS'TheThreeStooges'
p799
(lp800
VComedy
p801
aVFamily
p802
asS'TalesFromTheCrypt'
p803
(lp804
VComedy
p805
aVCrime
p806
aVFantasy
p807
aVHorror
p808
aVThriller
p809
asS'TheWildWildWest'
p810
(lp811
VAction
p812
aVAdventure
p813
aVSci-Fi
p814
aVThriller
p815
aVWestern
p816
asS'TheJokersWild'
p817
(lp818
VFamily
p819
aVGame-Show
p820
asS'Joey'
p821
(lp822
VComedy
p823
aVRomance
p824
asS'Casanova'
p825
(lp826
VAdventure
p827
aVComedy
p828
aVDrama
p829
aVRomance
p830
asS'FreshMeat'
p831
(lp832
VComedy
p833
aVDrama
p834
asS'CombatHospital'
p835
(lp836
VDrama
p837
aVWar
p838
asS'Community'
p839
(lp840
VComedy
p841
asS'PeopleLikeUs'
p842
(lp843
VDrama
p844
asS'WithoutATrace'
p845
(lp846
VCrime
p847
aVDrama
p848
aVMystery
p849
aVThriller
p850
asS'Pizza'
p851
(lp852
VComedy
p853
asS'CharliesAngels'
p854
(lp855
VAction
p856
aVAdventure
p857
aVComedy
p858
aVCrime
p859
aVThriller
p860
asS'CasadosConHijos'
p861
(lp862
VComedy
p863
asS'Godivas'
p864
(lp865
VComedy
p866
aVDrama
p867
asS'LetThemEatCake'
p868
(lp869
VComedy
p870
aVHistory
p871
asS'Grimm'
p872
(lp873
VDrama
p874
aVFantasy
p875
aVHorror
p876
aVMystery
p877
asS'GimmeGimmeGimme'
p878
(lp879
VComedy
p880
asS'Bottom'
p881
(lp882
VComedy
p883
asS'Jeopardy'
p884
(lp885
VDrama
p886
aVMystery
p887
aVSci-Fi
p888
aVThriller
p889
asS'SonsOfGuns'
p890
(lp891
VReality-TV
p892
asS'SoupyNorman'
p893
(lp894
sS'GhostHunters'
p895
(lp896
VAction
p897
aVAdventure
p898
aVComedy
p899
aVFantasy
p900
asS'DevilBesideYou'
p901
(lp902
VComedy
p903
aVRomance
p904
asS'ThreesCompany'
p905
(lp906
VReality-TV
p907
asS'AuctionHunters'
p908
(lp909
VReality-TV
p910
asS'Jackass'
p911
(lp912
VDocumentary
p913
aVAction
p914
aVComedy
p915
asS'MyThreeSons'
p916
(lp917
VComedy
p918
aVFamily
p919
asS'Pitfall'
p920
(lp921
VCrime
p922
aVFilm-Noir
p923
aVThriller
p924
asS'WaitingForGod'
p925
(lp926
VComedy
p927
asS'Workaholics'
p928
(lp929
VComedy
p930
asS'CameraCafe'
p931
(lp932
VComedy
p933
asS'BritainsGotTalent'
p934
(lp935
VComedy
p936
aVMusic
p937
aVReality-TV
p938
asS'Wipeout2008'
p939
(lp940
VAction
p941
aVSci-Fi
p942
asS'StarTrekDeepSpaceNine'
p943
(lp944
VAction
p945
aVAdventure
p946
aVDrama
p947
aVSci-Fi
p948
asS'OnlyFoolsAndHorses'
p949
(lp950
VComedy
p951
asS'Columbo'
p952
(lp953
VCrime
p954
aVDrama
p955
aVMystery
p956
aVThriller
p957
asS'Whitney'
p958
(lp959
VComedy
p960
asS'Vintergatan'
p961
(lp962
VComedy
p963
aVDrama
p964
asS'PerfectStrangers'
p965
(lp966
VComedy
p967
aVDrama
p968
asS'Naeturvaktin'
p969
(lp970
VComedy
p971
aVDrama
p972
asS'LittleHouseOnThePrairie'
p973
(lp974
VDrama
p975
aVFamily
p976
aVRomance
p977
aVWestern
p978
asS'BitchinKitchen'
p979
(lp980
sS'YesDear'
p981
(lp982
VAnimation
p983
aVShort
p984
aVComedy
p985
asS'TheAtheistExperience'
p986
(lp987
VTalk-Show
p988
asS'Alphas'
p989
(lp990
VAction
p991
aVDrama
p992
aVSci-Fi
p993
aVThriller
p994
asS'TheColbertReport'
p995
(lp996
VComedy
p997
aVNews
p998
aVTalk-Show
p999
asS'Survivor'
p1000
(lp1001
VAdventure
p1002
aVGame-Show
p1003
aVReality-TV
p1004
asS'UnhappilyEverAfter'
p1005
(lp1006
VComedy
p1007
asS'BeakmansWorld'
p1008
(lp1009
VComedy
p1010
aVFamily
p1011
asS'Fringe'
p1012
(lp1013
VDrama
p1014
aVMystery
p1015
aVSci-Fi
p1016
aVThriller
p1017
asS'TeenWolf'
p1018
(lp1019
VAction
p1020
aVComedy
p1021
aVDrama
p1022
aVFantasy
p1023
aVHorror
p1024
aVRomance
p1025
aVThriller
p1026
asS'AnimalFaceOff'
p1027
(lp1028
sS'Rome'
p1029
(lp1030
VAction
p1031
aVDrama
p1032
aVHistory
p1033
aVRomance
p1034
aVWar
p1035
asS'DeadSet'
p1036
(lp1037
VComedy
p1038
aVDrama
p1039
aVHorror
p1040
asS'Animorphs'
p1041
(lp1042
VFantasy
p1043
aVSci-Fi
p1044
aVThriller
p1045
asS'Hornblower'
p1046
(lp1047
VDrama
p1048
asS'Webster'
p1049
(lp1050
VComedy
p1051
aVFamily
p1052
asS'ItsAlwaysSunnyInPhiladelphia'
p1053
(lp1054
VComedy
p1055
asS'TheSuiteLifeOfZackAndCody'
p1056
(lp1057
VComedy
p1058
aVFamily
p1059
asS'MisterRogersNeighborhood'
p1060
(lp1061
VFamily
p1062
aVFantasy
p1063
aVMusic
p1064
asS'FallingSkies'
p1065
(lp1066
VAction
p1067
aVAdventure
p1068
aVDrama
p1069
aVSci-Fi
p1070
aVThriller
p1071
asS'SplitSecond'
p1072
(lp1073
VAction
p1074
aVCrime
p1075
aVHorror
p1076
aVSci-Fi
p1077
aVThriller
p1078
asS'TenPointFive'
p1079
(lp1080
VAnimation
p1081
aVShort
p1082
asS'Conan'
p1083
(lp1084
VAdventure
p1085
aVFantasy
p1086
asS'DiagnosisMurder'
p1087
(lp1088
VCrime
p1089
aVMystery
p1090
aVDrama
p1091
asS'ThePalace'
p1092
(lp1093
VDrama
p1094
asS'BlackMirror'
p1095
(lp1096
VDrama
p1097
aVSci-Fi
p1098
aVThriller
p1099
asS'LifesTooShort'
p1100
(lp1101
VComedy
p1102
asS'VengeanceUnlimited'
p1103
(lp1104
VCrime
p1105
aVDrama
p1106
asS'DrakeAndJosh'
p1107
(lp1108
VComedy
p1109
aVFamily
p1110
asS'DropTheDeadDonkey'
p1111
(lp1112
VComedy
p1113
asS'MrBrain'
p1114
(lp1115
VDrama
p1116
asS'GreysAnatomy'
p1117
(lp1118
VDrama
p1119
aVRomance
p1120
asS'GroundedForLife'
p1121
(lp1122
VComedy
p1123
asS'KeepingUpAppearances'
p1124
(lp1125
VComedy
p1126
asS'AfterLately'
p1127
(lp1128
VComedy
p1129
asS'Dateline'
p1130
(lp1131
VDocumentary
p1132
aVNews
p1133
asS'AfterMASH'
p1134
(lp1135
VDrama
p1136
aVThriller
p1137
asS'TheMostExtreme'
p1138
(lp1139
VDocumentary
p1140
asS'AllyMcBeal'
p1141
(lp1142
VComedy
p1143
aVDrama
p1144
aVFantasy
p1145
aVMusic
p1146
aVRomance
p1147
asS'Arliss'
p1148
(lp1149
VComedy
p1150
aVSport
p1151
asS'EverybodyHatesChris'
p1152
(lp1153
VComedy
p1154
asS'ThirtyRock'
p1155
(lp1156
VAnimation
p1157
aVAdventure
p1158
aVComedy
p1159
aVFamily
p1160
aVFantasy
p1161
aVMusical
p1162
asS'YoungBlades'
p1163
(lp1164
sS'Borgen'
p1165
(lp1166
VDrama
p1167
asS'KaizokuSentaiGokaiger'
p1168
(lp1169
VComedy
p1170
asS'BoyMeetsWorld'
p1171
(lp1172
VComedy
p1173
aVDrama
p1174
aVFamily
p1175
asS'TwoPointFourChildren'
p1176
(lp1177
VComedy
p1178
asS'GrowingPains'
p1179
(lp1180
VComedy
p1181
aVFamily
p1182
asS'ForeverKnight'
p1183
(lp1184
VCrime
p1185
aVDrama
p1186
aVHorror
p1187
aVMystery
p1188
asS'SevenPeriodsWithMrGormsby'
p1189
(lp1190
VComedy
p1191
asS'BeautyAndTheBeast'
p1192
(lp1193
VFamily
p1194
aVFantasy
p1195
aVMusical
p1196
aVRomance
p1197
asS'LifeAfterDinosaurs'
p1198
(lp1199
VDocumentary
p1200
aVAdventure
p1201
asS'HomicideLifeOnTheStreet'
p1202
(lp1203
VCrime
p1204
aVDrama
p1205
aVMystery
p1206
aVThriller
p1207
asS'TheCape'
p1208
(lp1209
VAction
p1210
aVDrama
p1211
asS'DreamHigh'
p1212
(lp1213
VComedy
p1214
aVMusic
p1215
aVRomance
p1216
asS'TheVicarOfDibley'
p1217
(lp1218
VComedy
p1219
asS'HappyDays'
p1220
(lp1221
VComedy
p1222
aVFamily
p1223
aVMusic
p1224
asS'GlasgowKiss'
p1225
(lp1226
sS'ILoveLucy'
p1227
(lp1228
VComedy
p1229
aVFamily
p1230
asS'KirRoyal'
p1231
(lp1232
VComedy
p1233
asS'Blackadder'
p1234
(lp1235
VComedy
p1236
asS'CSI'
p1237
(lp1238
VFamily
p1239
asS'ChildsPlay'
p1240
(lp1241
VShort
p1242
aVDrama
p1243
asS'ThankGodYoureHere'
p1244
(lp1245
VComedy
p1246
aVGame-Show
p1247
asS'SlingsAndArrows'
p1248
(lp1249
VComedy
p1250
asS'Botineras'
p1251
(lp1252
sS'TomorrowsPioneers'
p1253
(lp1254
sS'Crusade'
p1255
(lp1256
VAction
p1257
aVDrama
p1258
aVSci-Fi
p1259
asS'DinoLab'
p1260
(lp1261
VShort
p1262
aVDrama
p1263
asS'PJKatiesFarm'
p1264
(lp1265
VAnimation
p1266
aVComedy
p1267
asS'Caprica'
p1268
(lp1269
VAction
p1270
aVDrama
p1271
aVSci-Fi
p1272
asS'OutOfJimmysHead'
p1273
(lp1274
VAnimation
p1275
aVComedy
p1276
aVFamily
p1277
aVFantasy
p1278
asS'FamilyMatters'
p1279
(lp1280
VComedy
p1281
aVDrama
p1282
aVFamily
p1283
asS'AmericasFunniestHomeVideos'
p1284
(lp1285
VComedy
p1286
aVFamily
p1287
aVReality-TV
p1288
asS'PardonTheInterruption'
p1289
(lp1290
VSport
p1291
aVTalk-Show
p1292
asS'TheApprentice'
p1293
(lp1294
VGame-Show
p1295
aVReality-TV
p1296
asS'Raines'
p1297
(lp1298
VCrime
p1299
aVDrama
p1300
asS'AmericasMostWanted'
p1301
(lp1302
VDrama
p1303
aVFamily
p1304
aVRomance
p1305
asS'JamesMaysManLab'
p1306
(lp1307
VDocumentary
p1308
asS'BandOfBrothers'
p1309
(lp1310
VAction
p1311
aVDrama
p1312
aVHistory
p1313
aVWar
p1314
asS'TheAdventuresOfRobinHood'
p1315
(lp1316
VAction
p1317
aVAdventure
p1318
aVRomance
p1319
asS'HouseOfLies'
p1320
(lp1321
VComedy
p1322
aVDrama
p1323
asS'RiverMonsters'
p1324
(lp1325
VDocumentary
p1326
aVAdventure
p1327
aVMystery
p1328
asS'ThisHourHas22Minutes'
p1329
(lp1330
VComedy
p1331
asS'Touch'
p1332
(lp1333
VDrama
p1334
aVMystery
p1335
aVSci-Fi
p1336
asS'TheLikelyLads'
p1337
(lp1338
VComedy
p1339
asS'Chase'
p1340
(lp1341
VAction
p1342
aVCrime
p1343
aVDrama
p1344
aVThriller
p1345
asS'DiffrentStrokes'
p1346
(lp1347
VComedy
p1348
aVDrama
p1349
aVFamily
p1350
asS'GrangeHill'
p1351
(lp1352
VComedy
p1353
aVDrama
p1354
aVFamily
p1355
asS'DeathInParadise'
p1356
(lp1357
VCrime
p1358
aVDrama
p1359
aVMystery
p1360
aVThriller
p1361
asS'SoRandom'
p1362
(lp1363
VComedy
p1364
aVFamily
p1365
aVMusical
p1366
asS'EverybodyLovesRaymond'
p1367
(lp1368
VComedy
p1369
aVFamily
p1370
asS'TheDrewCareyShow'
p1371
(lp1372
VComedy
p1373
aVDrama
p1374
asS'MadDogs'
p1375
(lp1376
VComedy
p1377
aVCrime
p1378
aVDrama
p1379
asS'TrueLife'
p1380
(lp1381
VDocumentary
p1382
aVRomance
p1383
asS'OneFootInTheGrave'
p1384
(lp1385
VComedy
p1386
aVDrama
p1387
asS'Stingray'
p1388
(lp1389
sS'RestaurantImpossible'
p1390
(lp1391
VReality-TV
p1392
asS'DickAndDomInDaBungalow'
p1393
(lp1394
VComedy
p1395
aVFamily
p1396
aVGame-Show
p1397
asS'FatherTed'
p1398
(lp1399
VComedy
p1400
asS'Boris'
p1401
(lp1402
VComedy
p1403
asS'Cheers'
p1404
(lp1405
VComedy
p1406
aVDrama
p1407
asS'Jeremiah'
p1408
(lp1409
VAction
p1410
aVDrama
p1411
aVSci-Fi
p1412
asS'TheFades'
p1413
(lp1414
VFantasy
p1415
aVHorror
p1416
asS'MASH'
p1417
(lp1418
VComedy
p1419
aVDrama
p1420
aVWar
p1421
asS'AttackOfTheShow'
p1422
(lp1423
VNews
p1424
asS'DirkGently'
p1425
(lp1426
VComedy
p1427
aVCrime
p1428
aVSci-Fi
p1429
asS'DanLeBatardIsHighlyQuestionable'
p1430
(lp1431
sS'EinHerzUndEineSeele'
p1432
(lp1433
VComedy
p1434
asS'HerculesTheLegendaryJourneys'
p1435
(lp1436
VAction
p1437
aVAdventure
p1438
aVDrama
p1439
aVFantasy
p1440
aVRomance
p1441
asS'AForAndromeda'
p1442
(lp1443
VDrama
p1444
aVSci-Fi
p1445
aVThriller
p1446
asS'Wings'
p1447
(lp1448
VComedy
p1449
aVDrama
p1450
asS'KnightRider'
p1451
(lp1452
VAction
p1453
aVCrime
p1454
aVDrama
p1455
aVSci-Fi
p1456
asS'Smash'
p1457
(lp1458
VDrama
p1459
aVMusical
p1460
asS'MonstersResurrected'
p1461
(lp1462
VDocumentary
p1463
asS'TheHitchhikersGuideToTheGalaxy'
p1464
(lp1465
VAdventure
p1466
aVComedy
p1467
aVSci-Fi
p1468
asS'TheGame'
p1469
(lp1470
VDrama
p1471
aVMystery
p1472
aVThriller
p1473
asS'NewGirl'
p1474
(lp1475
VComedy
p1476
asS'Roar'
p1477
(lp1478
VAdventure
p1479
aVHorror
p1480
aVThriller
p1481
asS'TerraNova'
p1482
(lp1483
VAdventure
p1484
aVMystery
p1485
aVSci-Fi
p1486
asS'CaptainBluebear'
p1487
(lp1488
VShort
p1489
aVMusical
p1490
asS'TheBigBangTheory'
p1491
(lp1492
VComedy
p1493
aVRomance
p1494
asS'Danger5'
p1495
(lp1496
VDrama
p1497
aVFantasy
p1498
aVHorror
p1499
aVMystery
p1500
aVSci-Fi
p1501
aVThriller
p1502
asS'TheFactsOfLife'
p1503
(lp1504
VComedy
p1505
aVFamily
p1506
asS'Taxi'
p1507
(lp1508
VComedy
p1509
asS'YouHaveBeenWatching'
p1510
(lp1511
VComedy
p1512
aVGame-Show
p1513
asS'Spaced'
p1514
(lp1515
VAction
p1516
aVComedy
p1517
asS'ItAintHalfHotMum'
p1518
(lp1519
VComedy
p1520
aVWar
p1521
asS'FridayNightLights'
p1522
(lp1523
VDrama
p1524
aVSport
p1525
asS'Mawang'
p1526
(lp1527
VDrama
p1528
aVMystery
p1529
aVThriller
p1530
asS'InspectorLynley'
p1531
(lp1532
VCrime
p1533
aVDrama
p1534
aVMystery
p1535
aVRomance
p1536
asS'FairlyLegal'
p1537
(lp1538
VComedy
p1539
aVDrama
p1540
asS'WhaleWars'
p1541
(lp1542
VDocumentary
p1543
aVReality-TV
p1544
asS'RobotWars'
p1545
(lp1546
VAction
p1547
aVGame-Show
p1548
asS'TheFlash'
p1549
(lp1550
VAction
p1551
aVAdventure
p1552
aVDrama
p1553
aVSci-Fi
p1554
asS'YoSoyBettyLaFea'
p1555
(lp1556
VComedy
p1557
aVDrama
p1558
aVRomance
p1559
asS'ArmyWives'
p1560
(lp1561
VDrama
p1562
aVRomance
p1563
aVWar
p1564
asS'StarTrekVoyager'
p1565
(lp1566
VAction
p1567
aVAdventure
p1568
aVSci-Fi
p1569
asS'TheMightyBoosh'
p1570
(lp1571
VComedy
p1572
aVFantasy
p1573
aVMusical
p1574
asS'Highlander'
p1575
(lp1576
VAction
p1577
aVAdventure
p1578
aVFantasy
p1579
asS'FamilyAffair'
p1580
(lp1581
VComedy
p1582
aVFamily
p1583
asS'AfterschoolSpecial'
p1584
(lp1585
VAdventure
p1586
aVComedy
p1587
aVCrime
p1588
asS'Newhart'
p1589
(lp1590
VComedy
p1591
asS'SeventhHeaven'
p1592
(lp1593
VDrama
p1594
aVFamily
p1595
aVRomance
p1596
asS'ArchieBunkersPlace'
p1597
(lp1598
VComedy
p1599
asS'GarthMarenghisDarkplace'
p1600
(lp1601
VComedy
p1602
asS'DirtyJobs'
p1603
(lp1604
VReality-TV
p1605
asS'LoisAndClark'
p1606
(lp1607
VAdventure
p1608
aVComedy
p1609
aVDrama
p1610
aVRomance
p1611
aVSci-Fi
p1612
asS'XenaWarriorPrincess'
p1613
(lp1614
VDocumentary
p1615
aVShort
p1616
asS'BombGirls'
p1617
(lp1618
VDrama
p1619
aVWar
p1620
asS'Desmonds'
p1621
(lp1622
VAnimation
p1623
aVShort
p1624
asS'Batman'
p1625
(lp1626
VAction
p1627
aVAdventure
p1628
asS'ImInTheBand'
p1629
(lp1630
VComedy
p1631
aVFamily
p1632
aVMusic
p1633
asS'Clue'
p1634
(lp1635
VComedy
p1636
aVCrime
p1637
aVMystery
p1638
aVThriller
p1639
asS'LieToMe'
p1640
(lp1641
VCrime
p1642
aVDrama
p1643
aVMystery
p1644
aVThriller
p1645
asS'QuantumLeap'
p1646
(lp1647
VAction
p1648
aVAdventure
p1649
aVDrama
p1650
aVMystery
p1651
aVSci-Fi
p1652
asS'AllInTheFamily'
p1653
(lp1654
VComedy
p1655
aVDrama
p1656
asS'TheSecretCircle'
p1657
(lp1658
VDrama
p1659
aVFantasy
p1660
aVHorror
p1661
aVRomance
p1662
asS'Suburgatory'
p1663
(lp1664
VComedy
p1665
asS'MaxHeadroom'
p1666
(lp1667
VComedy
p1668
aVDrama
p1669
aVSci-Fi
p1670
asS'StargateAtlantis'
p1671
(lp1672
VAction
p1673
aVAdventure
p1674
aVDrama
p1675
aVSci-Fi
p1676
asS'AlloAllo'
p1677
(lp1678
VComedy
p1679
aVWar
p1680
asS'SeeingThings'
p1681
(lp1682
VComedy
p1683
aVMystery
p1684
asS'WillAndGrace'
p1685
(lp1686
VComedy
p1687
aVRomance
p1688
asS'DaVincisInquest'
p1689
(lp1690
VCrime
p1691
aVMystery
p1692
aVDrama
p1693
asS'FranklinAndBash'
p1694
(lp1695
VComedy
p1696
aVCrime
p1697
asS'TheCollector'
p1698
(lp1699
VHorror
p1700
asS'FearItself'
p1701
(lp1702
VHorror
p1703
asS'Becker'
p1704
(lp1705
VComedy
p1706
asS'ParkerLewisCantLose'
p1707
(lp1708
VComedy
p1709
asS'StarskyAndHutch'
p1710
(lp1711
VAction
p1712
aVCrime
p1713
aVDrama
p1714
aVMystery
p1715
asS'HeilHoneyImHome'
p1716
(lp1717
VComedy
p1718
asS'ConnorUndercover'
p1719
(lp1720
VAction
p1721
aVComedy
p1722
aVCrime
p1723
aVFamily
p1724
aVThriller
p1725
asS'TheMysticKnightsOfTirNaNog'
p1726
(lp1727
VAction
p1728
aVAdventure
p1729
aVDrama
p1730
aVFantasy
p1731
asS'OneHundredDeedsForEddieMcdowd'
p1732
(lp1733
sS'TheSecretAdventuresOfJulesVerne'
p1734
(lp1735
VHorror
p1736
aVSci-Fi
p1737
aVAdventure
p1738
asS'Zen'
p1739
(lp1740
VCrime
p1741
aVDrama
p1742
aVMystery
p1743
asS'BaitCar'
p1744
(lp1745
VCrime
p1746
aVReality-TV
p1747
asS'DoctorCandidoPerez'
p1748
(lp1749
sS'Chef'
p1750
(lp1751
VComedy
p1752
aVDrama
p1753
asS'MamasFamily'
p1754
(lp1755
VComedy
p1756
asS'HardyBoysNancyDrewMysteries'
p1757
(lp1758
VFamily
p1759
aVMystery
p1760
asS'Extras'
p1761
(lp1762
VComedy
p1763
aVDrama
p1764
asS'HorribleHistories'
p1765
(lp1766
VComedy
p1767
aVFamily
p1768
aVHistory
p1769
asS'TheWalkingDead'
p1770
(lp1771
VDrama
p1772
aVHorror
p1773
aVThriller
p1774
asS'TheOldGuys'
p1775
(lp1776
VComedy
p1777
asS'CrashCourse'
p1778
(lp1779
VComedy
p1780
asS'LostInSpace'
p1781
(lp1782
VAction
p1783
aVAdventure
p1784
aVFamily
p1785
aVSci-Fi
p1786
aVThriller
p1787
asS'OffCentre'
p1788
(lp1789
VComedy
p1790
asS'HangTime'
p1791
(lp1792
VComedy
p1793
asS'NedsDeclassifiedSchoolSurvivalGuide'
p1794
(lp1795
VComedy
p1796
aVFamily
p1797
asS'LandOfTheLost'
p1798
(lp1799
VAdventure
p1800
aVComedy
p1801
aVSci-Fi
p1802
asS'AnnaUndDieLiebe'
p1803
(lp1804
VDrama
p1805
aVRomance
p1806
asS'Suits'
p1807
(lp1808
VComedy
p1809
aVDrama
p1810
asS'TheAndyGriffithShow'
p1811
(lp1812
VComedy
p1813
aVFamily
p1814
asS'ItsGarryShandlingsShow'
p1815
(lp1816
VComedy
p1817
asS'TakeshisCastle'
p1818
(lp1819
VComedy
p1820
aVFamily
p1821
aVGame-Show
p1822
asS'Portlandia'
p1823
(lp1824
VComedy
p1825
asS'HikoninSentaiAkibaranger'
p1826
(lp1827
VAction
p1828
aVComedy
p1829
asS'TheMunsters'
p1830
(lp1831
VComedy
p1832
aVFamily
p1833
aVFantasy
p1834
aVHorror
p1835
asS'CanadasWorstDriver'
p1836
(lp1837
VDocumentary
p1838
aVComedy
p1839
asS'TheMiddle'
p1840
(lp1841
VComedy
p1842
asS'TheRottenTomatoesShow'
p1843
(lp1844
VComedy
p1845
asS'Kingdom'
p1846
(lp1847
VDrama
p1848
asS'Storylords'
p1849
(lp1850
VShort
p1851
aVComedy
p1852
aVDrama
p1853
aVFamily
p1854
asS'WildBoys'
p1855
(lp1856
VComedy
p1857
aVDrama
p1858
asS'LuckyLouie'
p1859
(lp1860
VComedy
p1861
asS'StarTrekEnterprise'
p1862
(lp1863
VAction
p1864
aVAdventure
p1865
aVDrama
p1866
aVSci-Fi
p1867
asS'TilDeath'
p1868
(lp1869
VAction
p1870
aVCrime
p1871
aVDrama
p1872
aVThriller
p1873
asS'Wilfred'
p1874
(lp1875
VComedy
p1876
aVDrama
p1877
aVMystery
p1878
asS'TheSarahJaneAdventures'
p1879
(lp1880
VDrama
p1881
aVFamily
p1882
aVSci-Fi
p1883
asS'TinMan'
p1884
(lp1885
VAdventure
p1886
aVFantasy
p1887
aVSci-Fi
p1888
aVWestern
p1889
asS'Stromberg'
p1890
(lp1891
VComedy
p1892
asS'WinBenSteinsMoney'
p1893
(lp1894
VComedy
p1895
aVGame-Show
p1896
asS'YouCantDoThatOnTelevision'
p1897
(lp1898
VFamily
p1899
aVComedy
p1900
asS'Campion'
p1901
(lp1902
VAdventure
p1903
aVCrime
p1904
aVDrama
p1905
aVMystery
p1906
asS'Luther'
p1907
(lp1908
VCrime
p1909
aVDrama
p1910
aVMystery
p1911
aVThriller
p1912
asS'TorchwoodMiracleDay'
p1913
(lp1914
VAction
p1915
aVDrama
p1916
aVSci-Fi
p1917
aVThriller
p1918
asS'SpartacusBloodAndSand'
p1919
(lp1920
VAnimation
p1921
asS'Pramface'
p1922
(lp1923
VComedy
p1924
asS'CurbYourEnthusiasm'
p1925
(lp1926
VComedy
p1927
asS'BeingHuman'
p1928
(lp1929
VDrama
p1930
aVFantasy
p1931
aVHorror
p1932
asS'WarOfTheWorlds'
p1933
(lp1934
VAdventure
p1935
aVSci-Fi
p1936
aVThriller
p1937
asS'Malparida'
p1938
(lp1939
sS'TheNormShow'
p1940
(lp1941
VComedy
p1942
asS'Torchwood'
p1943
(lp1944
VAction
p1945
aVDrama
p1946
aVSci-Fi
p1947
aVThriller
p1948
asS'ManAboutTheHouse'
p1949
(lp1950
VComedy
p1951
asS'DadsArmy'
p1952
(lp1953
VComedy
p1954
asS'Whites'
p1955
(lp1956
VComedy
p1957
asS'EvasiveInquiryAgency'
p1958
(lp1959
VComedy
p1960
asS'Nikita'
p1961
(lp1962
VAction
p1963
aVCrime
p1964
aVDrama
p1965
aVThriller
p1966
asS'SonicTheHedgehog'
p1967
(lp1968
VAnimation
p1969
asS'SportsNation'
p1970
(lp1971
VDocumentary
p1972
aVSport
p1973
asS'TopGearUS'
p1974
(lp1975
VComedy
p1976
aVTalk-Show
p1977
asS'BigWaveDaves'
p1978
(lp1979
VComedy
p1980
asS'ShakeItUp'
p1981
(lp1982
VComedy
p1983
aVFamily
p1984
asS'ChrisRyansStrikeBack'
p1985
(lp1986
VAction
p1987
aVDrama
p1988
aVThriller
p1989
asS'MrsBrownsBoys'
p1990
(lp1991
VComedy
p1992
asS'JackOfAllTrades'
p1993
(lp1994
VAdventure
p1995
aVAction
p1996
aVComedy
p1997
aVFantasy
p1998
asS'DelightfulGirlChoonHyang'
p1999
(lp2000
sS'HotPotato'
p2001
(lp2002
VComedy
p2003
asS'IClaudius'
p2004
(lp2005
VDocumentary
p2006
asS'LaverneAndShirley'
p2007
(lp2008
VDocumentary
p2009
asS'KamenRiderFourze'
p2010
(lp2011
VSci-Fi
p2012
asS'SwitchedAtBirth'
p2013
(lp2014
VDrama
p2015
aVFamily
p2016
aVRomance
p2017
asS'IDreamOfJeannie'
p2018
(lp2019
VComedy
p2020
aVFamily
p2021
aVFantasy
p2022
asS'Glee'
p2023
(lp2024
VComedy
p2025
aVDrama
p2026
aVMusic
p2027
aVMusical
p2028
asS'Duel'
p2029
(lp2030
VAction
p2031
aVThriller
p2032
asS'MacGyver'
p2033
(lp2034
VAction
p2035
aVAdventure
p2036
aVDrama
p2037
asS'Taken'
p2038
(lp2039
VAction
p2040
aVThriller
p2041
asS'GameOfThrones'
p2042
(lp2043
VAdventure
p2044
aVDrama
p2045
aVFantasy
p2046
aVRomance
p2047
asS'StormChasers'
p2048
(lp2049
VDocumentary
p2050
aVReality-TV
p2051
asS'PartyDown'
p2052
(lp2053
VComedy
p2054
asS'WasGuckstDu'
p2055
(lp2056
VComedy
p2057
asS'DrunkenToLoveYou'
p2058
(lp2059
VComedy
p2060
aVDrama
p2061
aVRomance
p2062
asS'AmericanHorrorStory'
p2063
(lp2064
VDrama
p2065
aVHorror
p2066
aVThriller
p2067
asS'LivingSingle'
p2068
(lp2069
VComedy
p2070
asS'LaPetiteVie'
p2071
(lp2072
sS'Jonas'
p2073
(lp2074
VComedy
p2075
aVFamily
p2076
aVMusic
p2077
asS'Frasier'
p2078
(lp2079
VComedy
p2080
asS'FirstWave'
p2081
(lp2082
VAdventure
p2083
aVDrama
p2084
aVSci-Fi
p2085
asS'TheManFromUNCLE'
p2086
(lp2087
VAction
p2088
aVAdventure
p2089
aVComedy
p2090
asS'DrQuinnMedicineWoman'
p2091
(lp2092
VDrama
p2093
aVFamily
p2094
aVWestern
p2095
asS'StrangersWithCandy'
p2096
(lp2097
VComedy
p2098
asS'TheArsenioHallShow'
p2099
(lp2100
VComedy
p2101
aVMusic
p2102
aVTalk-Show
p2103
asS'Monopoly'
p2104
(lp2105
VAdventure
p2106
aVComedy
p2107
asS'ElChapulinColorado'
p2108
(lp2109
VAdventure
p2110
aVComedy
p2111
aVCrime
p2112
aVFamily
p2113
asS'Eagleheart'
p2114
(lp2115
VAction
p2116
aVComedy
p2117
asS'ThePeoplesCourt'
p2118
(lp2119
VCrime
p2120
aVReality-TV
p2121
asS'AmericasGotTalent'
p2122
(lp2123
VGame-Show
p2124
aVMusic
p2125
aVReality-TV
p2126
asS'TheOReillyFactor'
p2127
(lp2128
VTalk-Show
p2129
asS'RemingtonSteele'
p2130
(lp2131
VAction
p2132
aVAdventure
p2133
aVComedy
p2134
aVCrime
p2135
aVDrama
p2136
aVMystery
p2137
aVRomance
p2138
aVThriller
p2139
asS'DinoGangs'
p2140
(lp2141
VDocumentary
p2142
asS'RookieBlue'
p2143
(lp2144
VCrime
p2145
aVDrama
p2146
asS'CanadasWorstHandyman'
p2147
(lp2148
VReality-TV
p2149
asS'MayToDecember'
p2150
(lp2151
VComedy
p2152
asS'MonarchOfTheGlen'
p2153
(lp2154
VComedy
p2155
aVDrama
p2156
aVRomance
p2157
asS'WhatILikeAboutYou'
p2158
(lp2159
VComedy
p2160
aVDrama
p2161
aVFamily
p2162
asS'TheHardTimesOfRJBerger'
p2163
(lp2164
VComedy
p2165
asS'TheGreatOutdoors'
p2166
(lp2167
VComedy
p2168
asS'BlankCheck'
p2169
(lp2170
VComedy
p2171
aVCrime
p2172
aVFamily
p2173
asS'ThirdRockFromTheSun'
p2174
(lp2175
VComedy
p2176
aVFamily
p2177
aVSci-Fi
p2178
asS'AsTheWorldTurns'
p2179
(lp2180
VDrama
p2181
aVRomance
p2182
asS'MANTIS'
p2183
(lp2184
sS'StargateUniverse'
p2185
(lp2186
VDrama
p2187
aVSci-Fi
p2188
asS'Sherlock'
p2189
(lp2190
VCrime
p2191
aVDrama
p2192
aVMystery
p2193
asS'HausmeisterKrause'
p2194
(lp2195
VComedy
p2196
asS'SmartGuy'
p2197
(lp2198
VComedy
p2199
aVDrama
p2200
aVFamily
p2201
asS'Scattergories'
p2202
(lp2203
VFamily
p2204
aVGame-Show
p2205
asS'TheFallAndRiseOfReginaldPerrin'
p2206
(lp2207
VComedy
p2208
asS'ParksAndRecreation'
p2209
(lp2210
VComedy
p2211
asS'LawAndOrderLA'
p2212
(lp2213
VRomance
p2214
aVWestern
p2215
asS'MyFamily'
p2216
(lp2217
VComedy
p2218
asS'Bedlam'
p2219
(lp2220
VHorror
p2221
asS'ForLovePleaseRingBellTwice'
p2222
(lp2223
sS'TheLegendOfDickAndDom'
p2224
(lp2225
VComedy
p2226
aVDrama
p2227
asS'GoldenPalace'
p2228
(lp2229
VComedy
p2230
asS'RaisingHope'
p2231
(lp2232
VComedy
p2233
aVFamily
p2234
asS'TheKingOfQueens'
p2235
(lp2236
VComedy
p2237
asS'Girls'
p2238
(lp2239
VComedy
p2240
aVDrama
p2241
asS'GoodTimes'
p2242
(lp2243
VComedy
p2244
asS'DownWithLove'
p2245
(lp2246
VComedy
p2247
aVRomance
p2248
asS'TheAdventuresOfShirleyHolmes'
p2249
(lp2250
VMystery
p2251
aVFamily
p2252
asS'TheAdventuresOfSuperman'
p2253
(lp2254
VSci-Fi
p2255
asS'DragonsDen'
p2256
(lp2257
VReality-TV
p2258
asS'TheNamesTheSame'
p2259
(lp2260
VFamily
p2261
aVGame-Show
p2262
asS'Studio3'
p2263
(lp2264
VComedy
p2265
asS'PuppyBowl'
p2266
(lp2267
sS'TheAdventuresOfLanoAndWoodley'
p2268
(lp2269
VComedy
p2270
asS'DontTellMyMother'
p2271
(lp2272
VShort
p2273
aVComedy
p2274
asS'Benidorm'
p2275
(lp2276
VComedy
p2277
asS'NecessaryRoughness'
p2278
(lp2279
VComedy
p2280
aVDrama
p2281
aVRomance
p2282
asS'Alice1976'
p2283
(lp2284
sS'TheQuestForKarla'
p2285
(lp2286
sS'HamishMacbeth'
p2287
(lp2288
VComedy
p2289
aVDrama
p2290
asS'CodeNameEternity'
p2291
(lp2292
VAction
p2293
aVAdventure
p2294
aVSci-Fi
p2295
aVCrime
p2296
asS'TheMole'
p2297
(lp2298
VDrama
p2299
aVWestern
p2300
asS'HomeImprovement'
p2301
(lp2302
VComedy
p2303
aVFamily
p2304
asS'KungFu'
p2305
(lp2306
VAction
p2307
aVComedy
p2308
aVCrime
p2309
aVFantasy
p2310
asS'CheapSeats'
p2311
(lp2312
VComedy
p2313
aVSport
p2314
asS'Identity'
p2315
(lp2316
VMystery
p2317
aVThriller
p2318
asS'Benson'
p2319
(lp2320
VComedy
p2321
aVFamily
p2322
asS'StarTrekTheNextGeneration'
p2323
(lp2324
VAction
p2325
aVAdventure
p2326
aVMystery
p2327
aVSci-Fi
p2328
asS'DiplomaticImmunity'
p2329
(lp2330
VAction
p2331
aVDrama
p2332
asS'TheNewStatesman'
p2333
(lp2334
VComedy
p2335
asS'TheChasersWarOnEverything'
p2336
(lp2337
VComedy
p2338
asS'TheWarNextDoor'
p2339
(lp2340
VAction
p2341
aVComedy
p2342
asS'Tatort'
p2343
(lp2344
VCrime
p2345
aVDrama
p2346
asS'Reaper'
p2347
(lp2348
VAdventure
p2349
aVComedy
p2350
aVDrama
p2351
aVFantasy
p2352
aVThriller
p2353
asS'TheATeam'
p2354
(lp2355
VAction
p2356
aVAdventure
p2357
aVComedy
p2358
aVCrime
p2359
aVThriller
p2360
asS'Bewitched'
p2361
(lp2362
VComedy
p2363
aVFamily
p2364
aVFantasy
p2365
aVRomance
p2366
asS'FraggleRock'
p2367
(lp2368
VAnimation
p2369
aVAdventure
p2370
aVComedy
p2371
aVFamily
p2372
aVFantasy
p2373
aVMusical
p2374
asS'TheChronicle'
p2375
(lp2376
VComedy
p2377
aVHorror
p2378
aVSci-Fi
p2379
asS'AreYouBeingServed'
p2380
(lp2381
VComedy
p2382
asS'BurnNotice'
p2383
(lp2384
VAction
p2385
aVCrime
p2386
aVDrama
p2387
aVMystery
p2388
aVThriller
p2389
asS'RedCap'
p2390
(lp2391
VCrime
p2392
aVDrama
p2393
asS'BreakTheBank1985'
p2394
(lp2395
VGame-Show
p2396
asS'RussianRoulette'
p2397
(lp2398
VDrama
p2399
aVThriller
p2400
asS'JustCause'
p2401
(lp2402
VAction
p2403
aVCrime
p2404
aVDrama
p2405
aVMystery
p2406
aVThriller
p2407
asS'DangerMan'
p2408
(lp2409
VAction
p2410
aVAdventure
p2411
aVCrime
p2412
aVMystery
p2413
aVThriller
p2414
asS'ColdCase'
p2415
(lp2416
VCrime
p2417
aVDrama
p2418
aVMystery
p2419
aVThriller
p2420
asS'TheAvengers'
p2421
(lp2422
VAction
p2423
aVSci-Fi
p2424
asS'ArabianNights'
p2425
(lp2426
VComedy
p2427
aVDrama
p2428
aVFantasy
p2429
aVHistory
p2430
asS'Haven'
p2431
(lp2432
VCrime
p2433
aVDrama
p2434
aVFantasy
p2435
aVHorror
p2436
aVMystery
p2437
aVSci-Fi
p2438
aVThriller
p2439
asS'AnimalArmageddon'
p2440
(lp2441
VDocumentary
p2442
aVAnimation
p2443
aVHistory
p2444
asS'SixteenAndPregnant'
p2445
(lp2446
VDrama
p2447
asS'AdventuresInWonderland'
p2448
(lp2449
VComedy
p2450
aVFamily
p2451
aVFantasy
p2452
aVMusical
p2453
asS'TheClass'
p2454
(lp2455
VComedy
p2456
aVRomance
p2457
asS'InsomniacWithDaveAttell'
p2458
(lp2459
VComedy
p2460
asS'CaitlinsWay'
p2461
(lp2462
sS'Viper'
p2463
(lp2464
VCrime
p2465
aVSci-Fi
p2466
asS'GoodLuckCharlie'
p2467
(lp2468
VComedy
p2469
aVDrama
p2470
aVFamily
p2471
asS'TheWeirdAlShow'
p2472
(lp2473
VFamily
p2474
aVComedy
p2475
aVMusical
p2476
asS'AgainstTheWall'
p2477
(lp2478
VDrama
p2479
aVRomance
p2480
asS'TheBrittasEmpire'
p2481
(lp2482
VComedy
p2483
asS'MyPhoneGenie'
p2484
(lp2485
VComedy
p2486
asS'CriminalMindsSuspectBehavior'
p2487
(lp2488
VCrime
p2489
aVDrama
p2490
aVMystery
p2491
aVThriller
p2492
asS'MrSunshine'
p2493
(lp2494
VComedy
p2495
asS'LevelUp'
p2496
(lp2497
VThriller
p2498
asS'SosMiVida'
p2499
(lp2500
VComedy
p2501
aVRomance
p2502
aVSport
p2503
asS'Woof'
p2504
(lp2505
VShort
p2506
aVComedy
p2507
asS'TheYoungOnes'
p2508
(lp2509
VComedy
p2510
asS'RedDwarf'
p2511
(lp2512
VComedy
p2513
aVSci-Fi
p2514
asS'FawltyTowers'
p2515
(lp2516
VComedy
p2517
asS'DoogieHowserMD'
p2518
(lp2519
VComedy
p2520
aVDrama
p2521
aVFamily
p2522
asS'DeadRingers'
p2523
(lp2524
VDrama
p2525
aVHorror
p2526
aVThriller
p2527
asS'Dinnerladies'
p2528
(lp2529
VComedy
p2530
asS'WhatWouldYouDo'
p2531
(lp2532
VShort
p2533
aVAction
p2534
aVCrime
p2535
aVDrama
p2536
asS'RunningWilde'
p2537
(lp2538
VComedy
p2539
asS'Roseanne'
p2540
(lp2541
VComedy
p2542
aVDrama
p2543
aVFamily
p2544
asS'MalcolmInTheMiddle'
p2545
(lp2546
VComedy
p2547
asS'TheParkers'
p2548
(lp2549
VComedy
p2550
asS'BreakoutKings'
p2551
(lp2552
VCrime
p2553
aVDrama
p2554
aVThriller
p2555
asS'Revenge'
p2556
(lp2557
VDrama
p2558
aVMystery
p2559
aVThriller
p2560
asS'Flashpoint'
p2561
(lp2562
VAction
p2563
aVCrime
p2564
aVDrama
p2565
aVThriller
p2566
asS'Ironside'
p2567
(lp2568
VCrime
p2569
aVDrama
p2570
aVMystery
p2571
asS'WildRomance'
p2572
(lp2573
VComedy
p2574
aVRomance
p2575
aVSport
p2576
asS'SoLittleTime'
p2577
(lp2578
VComedy
p2579
aVFamily
p2580
asS'PrimeSuspectUS'
p2581
(lp2582
VCrime
p2583
aVDrama
p2584
aVMystery
p2585
aVThriller
p2586
asS'HerederosDeUnaVenganza'
p2587
(lp2588
VDrama
p2589
asS'ShadowChasers'
p2590
(lp2591
VFantasy
p2592
aVMystery
p2593
asS'TwoPintsOfLagerAndAPacketOfCrisps'
p2594
(lp2595
VComedy
p2596
asS'RockyJonesSpaceRanger'
p2597
(lp2598
VAdventure
p2599
aVFamily
p2600
aVSci-Fi
p2601
asS'BoredToDeath'
p2602
(lp2603
VComedy
p2604
aVCrime
p2605
aVMystery
p2606
asS'BlakesSeven'
p2607
(lp2608
VComedy
p2609
aVCrime
p2610
aVDrama
p2611
aVMystery
p2612
asS'WhosTheBoss'
p2613
(lp2614
VShort
p2615
aVComedy
p2616
aVMusic
p2617
asS'Renegade'
p2618
(lp2619
VAction
p2620
aVAdventure
p2621
aVCrime
p2622
aVDrama
p2623
asS'TheBobNewhartShow'
p2624
(lp2625
VComedy
p2626
asS'StepByStep'
p2627
(lp2628
VComedy
p2629
aVFamily
p2630
aVRomance
p2631
asS'DinosaurRevolution'
p2632
(lp2633
VDocumentary
p2634
asS'BetweenTheLines'
p2635
(lp2636
VCrime
p2637
aVDrama
p2638
asS'SonOfTheBeach'
p2639
(lp2640
VComedy
p2641
asS'LeaveItToBeaver'
p2642
(lp2643
VComedy
p2644
aVFamily
p2645
asS'BlackBooks'
p2646
(lp2647
VComedy
p2648
asS'FatedToLoveYou'
p2649
(lp2650
VComedy
p2651
aVRomance
p2652
asS'Dagvaktin'
p2653
(lp2654
VComedy
p2655
aVDrama
p2656
asS'AsTimeGoesBy'
p2657
(lp2658
VComedy
p2659
aVRomance
p2660
asS'Outnumbered'
p2661
(lp2662
VComedy
p2663
aVDrama
p2664
asS'LieToMeSK'
p2665
(lp2666
VCrime
p2667
aVDrama
p2668
aVMystery
p2669
aVThriller
p2670
asS'TwoBrokeGirls'
p2671
(lp2672
VComedy
p2673
asS'TheMaryTylerMooreShow'
p2674
(lp2675
VComedy
p2676
asS'TheInvisibleMan'
p2677
(lp2678
VAction
p2679
aVDrama
p2680
aVHorror
p2681
aVSci-Fi
p2682
aVThriller
p2683
asS'DieWochenshow'
p2684
(lp2685
VComedy
p2686
asS'HumanTarget'
p2687
(lp2688
VAction
p2689
aVAdventure
p2690
aVCrime
p2691
aVDrama
p2692
aVThriller
p2693
asS'AquiNoHayQuienViva'
p2694
(lp2695
VComedy
p2696
asS'Psych'
p2697
(lp2698
VComedy
p2699
aVCrime
p2700
aVMystery
p2701
asS'TheOsbournes'
p2702
(lp2703
VComedy
p2704
aVMusic
p2705
aVReality-TV
p2706
asS'YoureSkittingMe'
p2707
(lp2708
VComedy
p2709
asS'SingleFather'
p2710
(lp2711
VDrama
p2712
asS'WheelOfFortune'
p2713
(lp2714
VFamily
p2715
aVGame-Show
p2716
asS'TheLeagueOfGentlemen'
p2717
(lp2718
VComedy
p2719
aVHorror
p2720
asS'NCIS'
p2721
(lp2722
VAction
p2723
aVComedy
p2724
aVCrime
p2725
aVDrama
p2726
aVMystery
p2727
aVThriller
p2728
asS'HalloSpencer'
p2729
(lp2730
VFamily
p2731
asS'Sirens'
p2732
(lp2733
VComedy
p2734
asS'DawsonsCreek'
p2735
(lp2736
VDrama
p2737
aVRomance
p2738
asS'KamenRider'
p2739
(lp2740
VAction
p2741
aVAdventure
p2742
aVDrama
p2743
aVSci-Fi
p2744
asS'RobinHood'
p2745
(lp2746
VAdventure
p2747
asS'TheGirlFromUNCLE'
p2748
(lp2749
VAction
p2750
aVAdventure
p2751
asS'Cupid'
p2752
(lp2753
VComedy
p2754
asS'WhiteChristmas'
p2755
(lp2756
VComedy
p2757
aVMusical
p2758
aVRomance
p2759
asS'TheAddamsFamily'
p2760
(lp2761
VComedy
p2762
aVFantasy
p2763
asS'StrikeBack'
p2764
(lp2765
VAction
p2766
aVDrama
p2767
aVThriller
p2768
asS'Pets'
p2769
(lp2770
VAnimation
p2771
aVAdventure
p2772
aVComedy
p2773
aVFamily
p2774
asS'WeirdScience'
p2775
(lp2776
VComedy
p2777
aVRomance
p2778
aVSci-Fi
p2779
asS'ThePuzzlePlace'
p2780
(lp2781
VFamily
p2782
asS'VoyageToTheBottomOfTheSea'
p2783
(lp2784
VAdventure
p2785
aVSci-Fi
p2786
asS'StillStanding'
p2787
(lp2788
VComedy
p2789
aVFamily
p2790
aVRomance
p2791
asS'Maverick'
p2792
(lp2793
VAction
p2794
aVAdventure
p2795
aVComedy
p2796
aVThriller
p2797
aVWestern
p2798
asS'MurdochMysteries'
p2799
(lp2800
VCrime
p2801
aVDrama
p2802
aVMystery
p2803
asS'HowIMetYourMother'
p2804
(lp2805
VComedy
p2806
aVRomance
p2807
asS'HoratioHornblower'
p2808
(lp2809
VAdventure
p2810
aVDrama
p2811
aVWar
p2812
asS'TheWanderer'
p2813
(lp2814
VDrama
p2815
asS'Jackpot'
p2816
(lp2817
VComedy
p2818
aVRomance
p2819
asS'BloodTies'
p2820
(lp2821
VCrime
p2822
aVDrama
p2823
aVThriller
p2824
asS'Baywatch'
p2825
(lp2826
VComedy
p2827
asS'BodyLanguage'
p2828
(lp2829
VDrama
p2830
aVRomance
p2831
asS'TheRoyleFamily'
p2832
(lp2833
VComedy
p2834
asS'TheMonkees'
p2835
(lp2836
VComedy
p2837
aVMusic
p2838
asS'ClashOfTheDinosaurs'
p2839
(lp2840
VDocumentary
p2841
aVHistory
p2842
asS'TopChef'
p2843
(lp2844
VGame-Show
p2845
aVReality-TV
p2846
asS'TheSecretsOfIsis'
p2847
(lp2848
VThriller
p2849
asS'AaronStone'
p2850
(lp2851
VAction
p2852
aVAdventure
p2853
aVFamily
p2854
aVSci-Fi
p2855
aVThriller
p2856
asS'Mongrels'
p2857
(lp2858
VComedy
p2859
asS'TheRatPatrol'
p2860
(lp2861
VAction
p2862
aVDrama
p2863
aVAdventure
p2864
aVWar
p2865
asS'TheWaltons'
p2866
(lp2867
VDrama
p2868
aVFamily
p2869
aVRomance
p2870
asS'RabCNesbitt'
p2871
(lp2872
VComedy
p2873
asS'MysteryScienceTheater3000'
p2874
(lp2875
VComedy
p2876
aVSci-Fi
p2877
asS'TheKing2Hearts'
p2878
(lp2879
VAction
p2880
aVDrama
p2881
aVRomance
p2882
asS'GilligansIsland'
p2883
(lp2884
VComedy
p2885
aVFamily
p2886
asS'Monk'
p2887
(lp2888
VComedy
p2889
aVCrime
p2890
aVDrama
p2891
aVMystery
p2892
asS'HoneyIShrunkTheKids'
p2893
(lp2894
VAdventure
p2895
aVComedy
p2896
aVFamily
p2897
aVSci-Fi
p2898
asS'PunkyBrewster'
p2899
(lp2900
VFamily
p2901
aVComedy
p2902
asS'GuidingLight'
p2903
(lp2904
VDrama
p2905
aVRomance
p2906
asS'MaidMarianAndHerMerryMen'
p2907
(lp2908
VAdventure
p2909
aVComedy
p2910
aVFamily
p2911
aVHistory
p2912
aVMusical
p2913
asS'DinosaurPlanet'
p2914
(lp2915
VDocumentary
p2916
aVAnimation
p2917
aVFamily
p2918
asS'SummersDesire'
p2919
(lp2920
VRomance
p2921
asS'NotGoingOut'
p2922
(lp2923
VComedy
p2924
asS'BarneyMiller'
p2925
(lp2926
VComedy
p2927
aVDrama
p2928
asS'TheOffice'
p2929
(lp2930
VComedy
p2931
asS'TheOthers'
p2932
(lp2933
VHorror
p2934
aVMystery
p2935
aVThriller
p2936
asS'DrewCareysImprovAGanza'
p2937
(lp2938
VComedy
p2939
asS'DasshutsuGameDERO'
p2940
(lp2941
VThriller
p2942
asS'TalesFromTheDarkside'
p2943
(lp2944
VFantasy
p2945
aVHorror
p2946
aVThriller
p2947
asS'OneEightHundredMissing'
p2948
(lp2949
sS'Bones'
p2950
(lp2951
VComedy
p2952
aVCrime
p2953
aVDrama
p2954
aVMystery
p2955
aVRomance
p2956
asS'LawAndOrder'
p2957
(lp2958
VCrime
p2959
aVDrama
p2960
aVMystery
p2961
aVThriller
p2962
asS'Frontline'
p2963
(lp2964
VDocumentary
p2965
asS'PrivateSchulz'
p2966
(lp2967
VComedy
p2968
asS'BodyOfProof'
p2969
(lp2970
VCrime
p2971
aVDrama
p2972
asS'Awkward'
p2973
(lp2974
VComedy
p2975
aVDrama
p2976
aVRomance
p2977
asS'YouRangMLord'
p2978
(lp2979
VComedy
p2980
asS'TimAndEricAwesomeShowGreatJob'
p2981
(lp2982
VComedy
p2983
aVMusic
p2984
asS'IveGotASecret'
p2985
(lp2986
VFamily
p2987
aVGame-Show
p2988
asS'AceOfCakes'
p2989
(lp2990
VReality-TV
p2991
asS'Amazing'
p2992
(lp2993
VDrama
p2994
aVRomance
p2995
aVSport
p2996
asS'TheX-Files'
p2997
(lp2998
VDrama
p2999
aVMystery
p3000
aVSci-Fi
p3001
aVThriller
p3002
asS'SkippyTheBushKangaroo'
p3003
(lp3004
VAdventure
p3005
aVFamily
p3006
asS'YoungIndianaJones'
p3007
(lp3008
VAction
p3009
aVAdventure
p3010
aVFamily
p3011
aVMystery
p3012
asS'Mars'
p3013
(lp3014
VAdventure
p3015
aVDrama
p3016
aVSci-Fi
p3017
asS'AxMen'
p3018
(lp3019
VDocumentary
p3020
aVReality-TV
p3021
asS'SuddenlySusan'
p3022
(lp3023
VComedy
p3024
asS'DreamHouse'
p3025
(lp3026
VDrama
p3027
aVMystery
p3028
aVThriller
p3029
asS'CrankYankers'
p3030
(lp3031
VAnimation
p3032
aVComedy
p3033
asS'HowToRock'
p3034
(lp3035
VComedy
p3036
aVFamily
p3037
aVMusical
p3038
asS'Firefly'
p3039
(lp3040
VAdventure
p3041
aVDrama
p3042
aVSci-Fi
p3043
asS'CrimeStory'
p3044
(lp3045
VCrime
p3046
aVDrama
p3047
aVMystery
p3048
asS'BetterOffTed'
p3049
(lp3050
VComedy
p3051
asS'LeCoeurASesRaisons'
p3052
(lp3053
VComedy
p3054
aVRomance
p3055
asS'EureekasCastle'
p3056
(lp3057
VMusical
p3058
aVFamily
p3059
aVComedy
p3060
aVFantasy
p3061
asS'YoungHercules'
p3062
(lp3063
VAction
p3064
aVAdventure
p3065
aVFantasy
p3066
asS'DarkShadows'
p3067
(lp3068
VComedy
p3069
aVFantasy
p3070
aVHorror
p3071
asS'MontyPythonsFlyingCircus'
p3072
(lp3073
VComedy
p3074
asS'FarOutSpaceNuts'
p3075
(lp3076
VComedy
p3077
aVFamily
p3078
asS'TheJeffFoxworthyShow'
p3079
(lp3080
VComedy
p3081
aVFamily
p3082
asS'TheAdventuresOfSinbad'
p3083
(lp3084
VFantasy
p3085
aVAction
p3086
aVAdventure
p3087
asS'PeepShow'
p3088
(lp3089
VComedy
p3090
asS'ThatsSoRaven'
p3091
(lp3092
VComedy
p3093
aVFamily
p3094
aVFantasy
p3095
asS'FTroop'
p3096
(lp3097
VComedy
p3098
aVWar
p3099
aVWestern
p3100
asS'ImTelling'
p3101
(lp3102
VGame-Show
p3103
asS'LizzieMcGuire'
p3104
(lp3105
VComedy
p3106
aVDrama
p3107
aVFamily
p3108
asS'TreintaYUnMinutos'
p3109
(lp3110
VCrime
p3111
aVDrama
p3112
aVMystery
p3113
aVThriller
p3114
asS'TheIncredibleHulk'
p3115
(lp3116
VAction
p3117
aVAdventure
p3118
aVSci-Fi
p3119
asS'Up'
p3120
(lp3121
VAnimation
p3122
aVAdventure
p3123
aVComedy
p3124
aVFamily
p3125
asS'Titanic'
p3126
(lp3127
VDrama
p3128
aVRomance
p3129
asS'TheBorgias'
p3130
(lp3131
VCrime
p3132
aVDrama
p3133
aVHistory
p3134
aVRomance
p3135
asS'HeyDad'
p3136
(lp3137
VComedy
p3138
asS'AccordingToJim'
p3139
(lp3140
VComedy
p3141
aVRomance
p3142
asS'PowerRangersRPM'
p3143
(lp3144
VAction
p3145
aVAdventure
p3146
aVSci-Fi
p3147
asS'TheLastEnemy'
p3148
(lp3149
VDrama
p3150
aVRomance
p3151
aVThriller
p3152
asS'CriminalMinds'
p3153
(lp3154
VCrime
p3155
aVDrama
p3156
aVMystery
p3157
aVThriller
p3158
asS'Leonardo'
p3159
(lp3160
VAdventure
p3161
asS'SaturdayNightLive'
p3162
(lp3163
VComedy
p3164
aVMusic
p3165
asS'Blackout'
p3166
(lp3167
VCrime
p3168
aVDrama
p3169
aVMystery
p3170
aVThriller
p3171
asS'Kikaider'
p3172
(lp3173
VAnimation
p3174
aVSci-Fi
p3175
aVAdventure
p3176
aVAction
p3177
aVDrama
p3178
asS'PitBullsAndParolees'
p3179
(lp3180
VDrama
p3181
aVReality-TV
p3182
asS'GrandmasHouse'
p3183
(lp3184
VDrama
p3185
asS'HannahMontana'
p3186
(lp3187
VComedy
p3188
aVFamily
p3189
aVMusic
p3190
asS'HeyDude'
p3191
(lp3192
VAdventure
p3193
aVComedy
p3194
aVFamily
p3195
asS'PanAm'
p3196
(lp3197
VDrama
p3198
aVHistory
p3199
aVRomance
p3200
asS'TheGoldenGirls'
p3201
(lp3202
VComedy
p3203
aVDrama
p3204
asS'TheBradyBunch'
p3205
(lp3206
VComedy
p3207
aVFamily
p3208
asS'BeingHumanRemake'
p3209
(lp3210
sS'YesMinister'
p3211
(lp3212
VComedy
p3213
asS'Reba'
p3214
(lp3215
VComedy
p3216
aVDrama
p3217
aVFamily
p3218
asS'Alice2009'
p3219
(lp3220
VCrime
p3221
asS'BattlestarGalacticaClassic'
p3222
(lp3223
VDocumentary
p3224
aVShort
p3225
aVMusic
p3226
asS'MelissaAndJoey'
p3227
(lp3228
VComedy
p3229
aVRomance
p3230
asS'GetSmart'
p3231
(lp3232
VAction
p3233
aVAdventure
p3234
aVComedy
p3235
asS'SCTV'
p3236
(lp3237
VComedy
p3238
asS'BarefootContessa'
p3239
(lp3240
VDocumentary
p3241
asS'InspectorGeorgeGently'
p3242
(lp3243
VCrime
p3244
aVDrama
p3245
aVMystery
p3246
asS'GettingOn'
p3247
(lp3248
VComedy
p3249
asS'Rainbow'
p3250
(lp3251
VDrama
p3252
asS'MarriedWithChildren'
p3253
(lp3254
VComedy
p3255
asS'SueThomasFBEye'
p3256
(lp3257
VCrime
p3258
aVDrama
p3259
aVMystery
p3260
aVThriller
p3261
asS'BetweenTheLions'
p3262
(lp3263
VComedy
p3264
aVFamily
p3265
aVFantasy
p3266
asS'HappyEndings'
p3267
(lp3268
VComedy
p3269
aVRomance
p3270
asS'AmericanGuns'
p3271
(lp3272
VReality-TV
p3273
asS'Millennium'
p3274
(lp3275
VAction
p3276
aVCrime
p3277
aVMystery
p3278
aVThriller
p3279
asS'CornerGas'
p3280
(lp3281
VComedy
p3282
asS'WonderWoman'
p3283
(lp3284
VAction
p3285
aVAdventure
p3286
aVFantasy
p3287
aVSci-Fi
p3288
asS'AbsolutelyFabulous'
p3289
(lp3290
VComedy
p3291
aVCrime
p3292
asS'NoelsChristmasPresents'
p3293
(lp3294
VFamily
p3295
asS'RulesOfEngagement'
p3296
(lp3297
VComedy
p3298
aVRomance
p3299
asS'WinterSonata'
p3300
(lp3301
VRomance
p3302
asS'WhoseLineIsItAnyway'
p3303
(lp3304
VComedy
p3305
aVGame-Show
p3306
asS'DogTheBountyHunter'
p3307
(lp3308
VAdventure
p3309
aVCrime
p3310
aVReality-TV
p3311
asS'JustShootMe'
p3312
(lp3313
VDocumentary
p3314
aVAction
p3315
aVDrama
p3316
asS'Amen'
p3317
(lp3318
VBiography
p3319
aVCrime
p3320
aVDrama
p3321
aVWar
p3322
asS'AmericanChopper'
p3323
(lp3324
VComedy
p3325
aVReality-TV
p3326
aVSport
p3327
asS'TheXFactor'
p3328
(lp3329
VMusic
p3330
aVReality-TV
p3331
asS'Kaamelott'
p3332
(lp3333
VComedy
p3334
aVAdventure
p3335
aVFantasy
p3336
asS'NameThatTune'
p3337
(lp3338
VGame-Show
p3339
aVMusic
p3340
asS'RandallAndHopkirkDeceased'
p3341
(lp3342
VComedy
p3343
aVCrime
p3344
aVFantasy
p3345
aVMystery
p3346
asS'SecondChance'
p3347
(lp3348
VDrama
p3349
aVSci-Fi
p3350
asS'TheWayansBros'
p3351
(lp3352
VComedy
p3353
asS'Luck'
p3354
(lp3355
VDrama
p3356
aVSport
p3357
asS'Mastermind'
p3358
(lp3359
VGame-Show
p3360
asS'Terriers'
p3361
(lp3362
VCrime
p3363
aVDrama
p3364
aVMystery
p3365
aVThriller
p3366
asS'LostGirl'
p3367
(lp3368
VDrama
p3369
aVFantasy
p3370
asS'Charmed'
p3371
(lp3372
VDrama
p3373
aVFantasy
p3374
aVMystery
p3375
asS'TheJury'
p3376
(lp3377
VDrama
p3378
asS'AlienNation'
p3379
(lp3380
VAction
p3381
aVCrime
p3382
aVSci-Fi
p3383
asS'Veep'
p3384
(lp3385
VComedy
p3386
asS'Coupling'
p3387
(lp3388
VComedy
p3389
aVRomance
p3390
asS'LaskoDieFaustGottes'
p3391
(lp3392
VAction
p3393
aVAdventure
p3394
asS'DickAndDomsFunnyBusiness'
p3395
(lp3396
VComedy
p3397
asS'Misfits'
p3398
(lp3399
VComedy
p3400
aVDrama
p3401
aVFantasy
p3402
aVSci-Fi
p3403
asS'HellsKitchen'
p3404
(lp3405
VDocumentary
p3406
aVBiography
p3407
aVNews
p3408
asS'TheHoganFamily'
p3409
(lp3410
VComedy
p3411
aVFamily
p3412
asS'Sanctuary'
p3413
(lp3414
VDrama
p3415
aVFantasy
p3416
aVMystery
p3417
aVSci-Fi
p3418
asS'LifeOnMars2006'
p3419
(lp3420
sS'Chespirito'
p3421
(lp3422
VComedy
p3423
aVRomance
p3424
asS'BetterWithYou'
p3425
(lp3426
VComedy
p3427
asS'Tosh0'
p3428
(lp3429
VComedy
p3430
asS'LifeOnMars2008'
p3431
(lp3432
sS'TheInvaders'
p3433
(lp3434
VDrama
p3435
aVSci-Fi
p3436
aVThriller
p3437
asS'TheFallGuy'
p3438
(lp3439
VAction
p3440
aVAdventure
p3441
asS'TwentyOneJumpStreet'
p3442
(lp3443
sS'Dollhouse'
p3444
(lp3445
VDrama
p3446
aVMystery
p3447
aVSci-Fi
p3448
aVThriller
p3449
asS'TheTwilightZone'
p3450
(lp3451
VFantasy
p3452
aVHorror
p3453
aVMystery
p3454
aVSci-Fi
p3455
aVThriller
p3456
asS'TheWarAtHome'
p3457
(lp3458
VComedy
p3459
aVRomance
p3460
asS'NightGallery'
p3461
(lp3462
VDrama
p3463
aVFantasy
p3464
aVHorror
p3465
aVMystery
p3466
aVSci-Fi
p3467
aVThriller
p3468
asS'That70sShow'
p3469
(lp3470
VComedy
p3471
aVRomance
p3472
asS'Sliders'
p3473
(lp3474
VSci-Fi
p3475
aVAdventure
p3476
aVFantasy
p3477
asS'Camelot'
p3478
(lp3479
VDrama
p3480
aVFantasy
p3481
asS'House'
p3482
(lp3483
VDrama
p3484
aVMystery
p3485
asS'Conquest'
p3486
(lp3487
sS'MervGriffinsCrosswords'
p3488
(lp3489
VGame-Show
p3490
asS'TheFinder'
p3491
(lp3492
VComedy
p3493
aVCrime
p3494
aVDrama
p3495
aVRomance
p3496
asS'DinosaursDecoded'
p3497
(lp3498
VDocumentary
p3499
asS'TheBeverlyHillbillies'
p3500
(lp3501
VComedy
p3502
aVFamily
p3503
asS'ShootingStars'
p3504
(lp3505
VComedy
p3506
asS'Jessie'
p3507
(lp3508
VComedy
p3509
aVFamily
p3510
asS'SteptoeAndSon'
p3511
(lp3512
VComedy
p3513
asS'AlarmFuerCobra11'
p3514
(lp3515
VAction
p3516
asS'TheLibrarians'
p3517
(lp3518
VAction
p3519
aVAdventure
p3520
aVComedy
p3521
aVDrama
p3522
aVFantasy
p3523
asS'Insecurity'
p3524
(lp3525
VComedy
p3526
asS'TheRomanMysteries'
p3527
(lp3528
VDrama
p3529
aVFamily
p3530
aVFantasy
p3531
aVHistory
p3532
aVMystery
p3533
asS'TheGoodLife'
p3534
(lp3535
VComedy
p3536
asS'AmericanRestoration'
p3537
(lp3538
VReality-TV
p3539
asS'MurphyBrown'
p3540
(lp3541
VComedy
p3542
asS'TheVampyrASoapOpera'
p3543
(lp3544
VDrama
p3545
aVFantasy
p3546
aVHorror
p3547
aVMusical
p3548
asS'SpinCity'
p3549
(lp3550
VComedy
p3551
asS'Homeland'
p3552
(lp3553
VCrime
p3554
aVDrama
p3555
aVMystery
p3556
aVThriller
p3557
asS'Lassie'
p3558
(lp3559
VAdventure
p3560
aVDrama
p3561
aVFamily
p3562
asS'BuffyTheVampireSlayer'
p3563
(lp3564
VAction
p3565
aVDrama
p3566
aVFantasy
p3567
aVRomance
p3568
asS'Justified'
p3569
(lp3570
VAction
p3571
aVCrime
p3572
aVDrama
p3573
aVRomance
p3574
aVThriller
p3575
asS'HowNotToLiveYourLife'
p3576
(lp3577
VComedy
p3578
asS'TheHeartSheHoller'
p3579
(lp3580
VComedy
p3581
aVHorror
p3582
asS'SonDeFierro'
p3583
(lp3584
sS'FreddysNightmares'
p3585
(lp3586
VHorror
p3587
aVThriller
p3588
asS'MyNameIsEarl'
p3589
(lp3590
VComedy
p3591
asS'WizardsAndWarriors'
p3592
(lp3593
VAdventure
p3594
asS'RowanAndMartinsLaughIn'
p3595
(lp3596
VComedy
p3597
aVMusic
p3598
aVMusical
p3599
asS'TheChampions'
p3600
(lp3601
VAdventure
p3602
aVSci-Fi
p3603
aVThriller
p3604
asS'AlarmFurCobra11'
p3605
(lp3606
VAction
p3607
asS'JohnnyBago'
p3608
(lp3609
VComedy
p3610
aVDrama
p3611
asS'MySpyFamily'
p3612
(lp3613
VComedy
p3614
asS'TheAdventuresOfSherlockHolmesAndDoctorWatson'
p3615
(lp3616
VCrime
p3617
asS'HowItsMade'
p3618
(lp3619
VDocumentary
p3620
asS'TheNanny'
p3621
(lp3622
VComedy
p3623
aVFamily
p3624
aVRomance
p3625
asS'FilthyRichAndCatflap'
p3626
(lp3627
VComedy
p3628
asS'BradyBunchSpinOffs'
p3629
(lp3630
sS'YoungDracula'
p3631
(lp3632
VComedy
p3633
aVFamily
p3634
asS'SpecialUnit2'
p3635
(lp3636
VDrama
p3637
aVAction
p3638
aVComedy
p3639
aVHorror
p3640
asS'AllTheSmallThings'
p3641
(lp3642
VDrama
p3643
asS'LastOfTheSummerWine'
p3644
(lp3645
VComedy
p3646
asS'SavedByTheBell'
p3647
(lp3648
VComedy
p3649
aVFamily
p3650
aVRomance
p3651
asS'ZekeAndLuther'
p3652
(lp3653
VAction
p3654
aVAdventure
p3655
aVComedy
p3656
asS'Lost'
p3657
(lp3658
VAdventure
p3659
aVDrama
p3660
aVFantasy
p3661
aVMystery
p3662
aVSci-Fi
p3663
aVThriller
p3664
asS'TheFugitive'
p3665
(lp3666
VAction
p3667
aVCrime
p3668
aVDrama
p3669
aVMystery
p3670
aVThriller
p3671
asS'PeeWeesPlayhouse'
p3672
(lp3673
VFamily
p3674
aVComedy
p3675
aVMusical
p3676
asS'BizarreDinosaurs'
p3677
(lp3678
VDocumentary
p3679
asS'MrBelvedere'
p3680
(lp3681
VComedy
p3682
aVFamily
p3683
asS'Drive'
p3684
(lp3685
VCrime
p3686
aVDrama
p3687
asS'ImAlanPartridge'
p3688
(lp3689
VComedy
p3690
asS'BosomBuddies'
p3691
(lp3692
VComedy
p3693
asS'TheTimeTunnel'
p3694
(lp3695
VAction
p3696
aVAdventure
p3697
aVSci-Fi
p3698
asS'TheTrip'
p3699
(lp3700
VComedy
p3701
aVDrama
p3702
asS'TheOneMillionChanceOfALifetime'
p3703
(lp3704
VGame-Show
p3705
asS'FaceTheMusic'
p3706
(lp3707
VComedy
p3708
aVDrama
p3709
asS'Manchild'
p3710
(lp3711
VComedy
p3712
asS'BarneyAndFriends'
p3713
(lp3714
VAdventure
p3715
aVComedy
p3716
aVFamily
p3717
aVFantasy
p3718
aVMusical
p3719
aVSci-Fi
p3720
asS'MadAboutYou'
p3721
(lp3722
VComedy
p3723
aVRomance
p3724
asS'KYTV'
p3725
(lp3726
VComedy
p3727
asS'PatitoFeo'
p3728
(lp3729
VComedy
p3730
aVDrama
p3731
aVFamily
p3732
aVMusical
p3733
aVRomance
p3734
asS'Switch'
p3735
(lp3736
VComedy
p3737
aVFamily
p3738
aVFantasy
p3739
aVSport
p3740
asS'JeevesAndWooster'
p3741
(lp3742
VComedy
p3743
asS'RelicHunter'
p3744
(lp3745
VFantasy
p3746
aVMystery
p3747
aVAdventure
p3748
aVAction
p3749
aVSci-Fi
p3750
asS'FlashForward'
p3751
(lp3752
VDrama
p3753
aVMystery
p3754
aVSci-Fi
p3755
aVThriller
p3756
asS'MenBehavingBadly'
p3757
(lp3758
VComedy
p3759
asS'StateOfPlay'
p3760
(lp3761
VCrime
p3762
aVDrama
p3763
aVMystery
p3764
aVThriller
p3765
asS'AustinAndAlly'
p3766
(lp3767
VTalk-Show
p3768
asS'Scandal'
p3769
(lp3770
VDrama
p3771
aVThriller
p3772
asS'Scrabble'
p3773
(lp3774
VGame-Show
p3775
as.